; Function Attrs: mustprogress uwtable
define void @_ZN6icu_7714StringReplacerC2ERKS0_(ptr noundef nonnull align 8 dereferenceable(96) initializes((0, 26)) %0, ptr noundef nonnull align 8 dereferenceable(96) %1) unnamed_addr #1 align 2 personality ptr @__gxx_personality_v0 {
  %3 = getelementptr inbounds nuw i8, ptr %0, i64 8
  store ptr getelementptr inbounds nuw inrange(-16, 80) (i8, ptr @_ZTVN6icu_7714StringReplacerE, i64 16), ptr %0, align 8, !tbaa !15
  store ptr getelementptr inbounds nuw inrange(-16, 40) (i8, ptr @_ZTVN6icu_7714StringReplacerE, i64 112), ptr %3, align 8, !tbaa !15
  %4 = getelementptr inbounds nuw i8, ptr %0, i64 16
  store ptr getelementptr inbounds nuw inrange(-16, 88) (i8, ptr @_ZTVN6icu_7713UnicodeStringE, i64 16), ptr %4, align 8, !tbaa !15
  %5 = getelementptr inbounds nuw i8, ptr %0, i64 24
  store i16 2, ptr %5, align 8, !tbaa !17
  %6 = getelementptr inbounds nuw i8, ptr %1, i64 16
  %7 = invoke noundef nonnull align 8 dereferenceable(64) ptr @_ZN6icu_7713UnicodeStringaSERKS0_(ptr noundef nonnull align 8 dereferenceable(64) %4, ptr noundef nonnull align 8 dereferenceable(64) %6)
          to label %8 unwind label %21

8:                                                ; preds = %2
  %9 = getelementptr inbounds nuw i8, ptr %1, i64 80
  %10 = load i32, ptr %9, align 8, !tbaa !18
  %11 = getelementptr inbounds nuw i8, ptr %0, i64 80
  store i32 %10, ptr %11, align 8, !tbaa !18
  %12 = getelementptr inbounds nuw i8, ptr %1, i64 84
  %13 = load i8, ptr %12, align 4, !tbaa !26
  %14 = getelementptr inbounds nuw i8, ptr %0, i64 84
  store i8 %13, ptr %14, align 4, !tbaa !26
  %15 = getelementptr inbounds nuw i8, ptr %1, i64 88
  %16 = load ptr, ptr %15, align 8, !tbaa !27
  %17 = getelementptr inbounds nuw i8, ptr %0, i64 88
  store ptr %16, ptr %17, align 8, !tbaa !27
  %18 = getelementptr inbounds nuw i8, ptr %1, i64 85
  %19 = load i8, ptr %18, align 1, !tbaa !28
  %20 = getelementptr inbounds nuw i8, ptr %0, i64 85
  store i8 %19, ptr %20, align 1, !tbaa !28
  ret void

21:                                               ; preds = %2
  %22 = landingpad { ptr, i32 }
          cleanup
  tail call void @_ZN6icu_7713UnicodeStringD1Ev(ptr noundef nonnull align 8 dereferenceable(64) %4) #17
  tail call void @_ZN6icu_7714UnicodeFunctorD2Ev(ptr noundef nonnull align 8 dereferenceable(8) %0) #17
  resume { ptr, i32 } %22
}